; Function Attrs: nounwind uwtable
define hidden void @_mi_page_abandon(ptr noundef %0, ptr noundef %1) local_unnamed_addr #1 {
  %3 = getelementptr inbounds nuw i8, ptr %0, i64 64
  %4 = load atomic i64, ptr %3 monotonic, align 8
  %5 = inttoptr i64 %4 to ptr
  %6 = load ptr, ptr %5, align 8, !tbaa !49
  %7 = getelementptr inbounds nuw i8, ptr %6, i64 32
  tail call fastcc void @mi_page_queue_remove(ptr noundef %1, ptr noundef %0) #14
  store atomic i64 0, ptr %3 release, align 8
  tail call void @_mi_segment_page_abandon(ptr noundef %0, ptr noundef nonnull %7) #13
  ret void
}